target datalayout = "e-m:e-p270:32:32-p271:32:32-p272:64:64-i64:64-i128:128-f80:128-n8:16:32:64-S128"
target triple = "x86_64-pc-linux-gnu"

%"class.icu_77::UObject" = type { ptr }
%"class.icu_77::UnicodeString" = type { %"class.icu_77::Replaceable", %"union.icu_77::UnicodeString::StackBufferOrFields" }
%"class.icu_77::Replaceable" = type { %"class.icu_77::UObject" }
%"union.icu_77::UnicodeString::StackBufferOrFields" = type { %struct.anon.0, [32 x i8] }
%struct.anon.0 = type { i16, i32, i32, ptr }
%struct.anon = type { i16, [27 x i16] }

; Function Attrs: inlinehint mustprogress nounwind uwtable
define linkonce_odr noundef i32 @_ZNK6icu_7713UnicodeString14getShortLengthEv(ptr noundef nonnull align 8 dereferenceable(64) %0) #4 comdat align 2 {
  %2 = alloca ptr, align 8
  store ptr %0, ptr %2, align 8, !tbaa !35
  %3 = load ptr, ptr %2, align 8
  %4 = getelementptr inbounds nuw %"class.icu_77::UnicodeString", ptr %3, i32 0, i32 1
  %5 = getelementptr inbounds nuw %struct.anon.0, ptr %4, i32 0, i32 0
  %6 = load i16, ptr %5, align 8, !tbaa !37
  %7 = sext i16 %6 to i32
  %8 = ashr i32 %7, 5
  ret i32 %8
}

; Function Attrs: inlinehint mustprogress nounwind uwtable
define linkonce_odr noundef signext i8 @_ZNK6icu_7713UnicodeString14hasShortLengthEv(ptr noundef nonnull align 8 dereferenceable(64) %0) #4 comdat align 2 {
  %2 = alloca ptr, align 8
  store ptr %0, ptr %2, align 8, !tbaa !35
  %3 = load ptr, ptr %2, align 8
  %4 = getelementptr inbounds nuw %"class.icu_77::UnicodeString", ptr %3, i32 0, i32 1
  %5 = getelementptr inbounds nuw %struct.anon.0, ptr %4, i32 0, i32 0
  %6 = load i16, ptr %5, align 8, !tbaa !37
  %7 = sext i16 %6 to i32
  %8 = icmp sge i32 %7, 0
  %9 = zext i1 %8 to i8
  ret i8 %9
}

; Function Attrs: inlinehint mustprogress nounwind uwtable
define linkonce_odr noundef ptr @_ZN6icu_778internal10toUCharPtrEPKDs(ptr noundef %0) #4 comdat {
  %2 = alloca ptr, align 8
  store ptr %0, ptr %2, align 8, !tbaa !24
  %3 = load ptr, ptr %2, align 8, !tbaa !24
  call void asm sideeffect "", "rm,~{memory},~{dirflag},~{fpsr},~{flags}"(ptr %3) #7, !srcloc !38
  %4 = load ptr, ptr %2, align 8, !tbaa !24
  ret ptr %4
}

; Function Attrs: inlinehint mustprogress nounwind uwtable
define linkonce_odr noundef ptr @_ZNK6icu_7713UnicodeString9getBufferEv(ptr noundef nonnull align 8 dereferenceable(64) %0) #4 comdat align 2 {
  %2 = alloca ptr, align 8
  %3 = alloca ptr, align 8
  store ptr %0, ptr %3, align 8, !tbaa !35
  %4 = load ptr, ptr %3, align 8
  %5 = getelementptr inbounds nuw %"class.icu_77::UnicodeString", ptr %4, i32 0, i32 1
  %6 = getelementptr inbounds nuw %struct.anon.0, ptr %5, i32 0, i32 0
  %7 = load i16, ptr %6, align 8, !tbaa !37
  %8 = sext i16 %7 to i32
  %9 = and i32 %8, 17
  %10 = icmp ne i32 %9, 0
  br i1 %10, label %11, label %12

11:                                               ; preds = %1
  store ptr null, ptr %2, align 8
  br label %27

12:                                               ; preds = %1
  %13 = getelementptr inbounds nuw %"class.icu_77::UnicodeString", ptr %4, i32 0, i32 1
  %14 = getelementptr inbounds nuw %struct.anon.0, ptr %13, i32 0, i32 0
  %15 = load i16, ptr %14, align 8, !tbaa !37
  %16 = sext i16 %15 to i32
  %17 = and i32 %16, 2
  %18 = icmp ne i32 %17, 0
  br i1 %18, label %19, label %23

19:                                               ; preds = %12
  %20 = getelementptr inbounds nuw %"class.icu_77::UnicodeString", ptr %4, i32 0, i32 1
  %21 = getelementptr inbounds nuw %struct.anon, ptr %20, i32 0, i32 1
  %22 = getelementptr inbounds [27 x i16], ptr %21, i64 0, i64 0
  store ptr %22, ptr %2, align 8
  br label %27

23:                                               ; preds = %12
  %24 = getelementptr inbounds nuw %"class.icu_77::UnicodeString", ptr %4, i32 0, i32 1
  %25 = getelementptr inbounds nuw %struct.anon.0, ptr %24, i32 0, i32 3
  %26 = load ptr, ptr %25, align 8, !tbaa !37
  store ptr %26, ptr %2, align 8
  br label %27

27:                                               ; preds = %23, %19, %11
  %28 = load ptr, ptr %2, align 8
  ret ptr %28
}

; Function Attrs: inlinehint mustprogress uwtable
define linkonce_odr noundef i32 @_ZNK6icu_7713UnicodeString6lengthEv(ptr noundef nonnull align 8 dereferenceable(64) %0) #6 comdat align 2 {
  %2 = alloca ptr, align 8
  store ptr %0, ptr %2, align 8, !tbaa !35
  %3 = load ptr, ptr %2, align 8
  %4 = call noundef signext i8 @_ZNK6icu_7713UnicodeString14hasShortLengthEv(ptr noundef nonnull align 8 dereferenceable(64) %3)
  %5 = icmp ne i8 %4, 0
  br i1 %5, label %6, label %8

6:                                                ; preds = %1
  %7 = call noundef i32 @_ZNK6icu_7713UnicodeString14getShortLengthEv(ptr noundef nonnull align 8 dereferenceable(64) %3)
  br label %12

8:                                                ; preds = %1
  %9 = getelementptr inbounds nuw %"class.icu_77::UnicodeString", ptr %3, i32 0, i32 1
  %10 = getelementptr inbounds nuw %struct.anon.0, ptr %9, i32 0, i32 1
  %11 = load i32, ptr %10, align 4, !tbaa !37
  br label %12

12:                                               ; preds = %8, %6
  %13 = phi i32 [ %7, %6 ], [ %11, %8 ]
  ret i32 %13
}

; Function Attrs: inlinehint mustprogress uwtable
define linkonce_odr noundef ptr @_ZN6icu_7710USetAccess9getStringERKNS_10UnicodeSetEi(ptr noundef nonnull align 8 dereferenceable(200) %0, i32 noundef %1) #6 comdat align 2 {
  %3 = alloca ptr, align 8
  %4 = alloca i32, align 4
  store ptr %0, ptr %3, align 8, !tbaa !10
  store i32 %1, ptr %4, align 4, !tbaa !3
  %5 = load ptr, ptr %3, align 8, !tbaa !10
  %6 = load i32, ptr %4, align 4, !tbaa !3
  %7 = call noundef ptr @_ZNK6icu_7710UnicodeSet9getStringEi(ptr noundef nonnull align 8 dereferenceable(200) %5, i32 noundef %6)
  ret ptr %7
}

; Function Attrs: inlinehint mustprogress uwtable
define linkonce_odr noundef i32 @_ZN6icu_7710USetAccess14getStringCountERKNS_10UnicodeSetE(ptr noundef nonnull align 8 dereferenceable(200) %0) #6 comdat align 2 {
  %2 = alloca ptr, align 8
  store ptr %0, ptr %2, align 8, !tbaa !10
  %3 = load ptr, ptr %2, align 8, !tbaa !10
  %4 = call noundef i32 @_ZNK6icu_7710UnicodeSet11stringsSizeEv(ptr noundef nonnull align 8 dereferenceable(200) %3)
  ret i32 %4
}

; Function Attrs: mustprogress uwtable
define ptr @uset_getString_77(ptr noundef %0, i32 noundef %1, ptr noundef %2) #0 {
  %4 = alloca ptr, align 8
  %5 = alloca ptr, align 8
  %6 = alloca i32, align 4
  %7 = alloca ptr, align 8
  %8 = alloca ptr, align 8
  %9 = alloca i32, align 4
  %10 = alloca i32, align 4
  %11 = alloca ptr, align 8
  store ptr %0, ptr %5, align 8, !tbaa !7
  store i32 %1, ptr %6, align 4, !tbaa !3
  store ptr %2, ptr %7, align 8, !tbaa !34
  %12 = load ptr, ptr %7, align 8, !tbaa !34
  %13 = icmp eq ptr %12, null
  br i1 %13, label %14, label %15

14:                                               ; preds = %3
  store ptr null, ptr %4, align 8
  br label %38

15:                                               ; preds = %3
  call void @llvm.lifetime.start.p0(i64 8, ptr %8) #7
  %16 = load ptr, ptr %5, align 8, !tbaa !7
  store ptr %16, ptr %8, align 8, !tbaa !10
  call void @llvm.lifetime.start.p0(i64 4, ptr %9) #7
  %17 = load ptr, ptr %8, align 8, !tbaa !10
  %18 = call noundef i32 @_ZN6icu_7710USetAccess14getStringCountERKNS_10UnicodeSetE(ptr noundef nonnull align 8 dereferenceable(200) %17)
  store i32 %18, ptr %9, align 4, !tbaa !3
  %19 = load i32, ptr %6, align 4, !tbaa !3
  %20 = icmp slt i32 %19, 0
  br i1 %20, label %25, label %21

21:                                               ; preds = %15
  %22 = load i32, ptr %9, align 4, !tbaa !3
  %23 = load i32, ptr %6, align 4, !tbaa !3
  %24 = icmp sle i32 %22, %23
  br i1 %24, label %25, label %27

25:                                               ; preds = %21, %15
  %26 = load ptr, ptr %7, align 8, !tbaa !34
  store i32 0, ptr %26, align 4, !tbaa !3
  store ptr null, ptr %4, align 8
  store i32 1, ptr %10, align 4
  br label %37

27:                                               ; preds = %21
  call void @llvm.lifetime.start.p0(i64 8, ptr %11) #7
  %28 = load ptr, ptr %8, align 8, !tbaa !10
  %29 = load i32, ptr %6, align 4, !tbaa !3
  %30 = call noundef ptr @_ZN6icu_7710USetAccess9getStringERKNS_10UnicodeSetEi(ptr noundef nonnull align 8 dereferenceable(200) %28, i32 noundef %29)
  store ptr %30, ptr %11, align 8, !tbaa !35
  %31 = load ptr, ptr %11, align 8, !tbaa !35
  %32 = call noundef i32 @_ZNK6icu_7713UnicodeString6lengthEv(ptr noundef nonnull align 8 dereferenceable(64) %31)
  %33 = load ptr, ptr %7, align 8, !tbaa !34
  store i32 %32, ptr %33, align 4, !tbaa !3
  %34 = load ptr, ptr %11, align 8, !tbaa !35
  %35 = call noundef ptr @_ZNK6icu_7713UnicodeString9getBufferEv(ptr noundef nonnull align 8 dereferenceable(64) %34)
  %36 = call noundef ptr @_ZN6icu_778internal10toUCharPtrEPKDs(ptr noundef %35)
  store ptr %36, ptr %4, align 8
  store i32 1, ptr %10, align 4
  call void @llvm.lifetime.end.p0(i64 8, ptr %11) #7
  br label %37

37:                                               ; preds = %27, %25
  call void @llvm.lifetime.end.p0(i64 4, ptr %9) #7
  call void @llvm.lifetime.end.p0(i64 8, ptr %8) #7
  br label %38

38:                                               ; preds = %37, %14
  %39 = load ptr, ptr %4, align 8
  ret ptr %39
}