; Function Attrs: mustprogress uwtable
define ptr @uset_getString_77(ptr noundef %0, i32 noundef %1, ptr noundef writeonly %2) local_unnamed_addr #0 {
  %4 = icmp eq ptr %2, null
  br i1 %4, label %28, label %5

5:                                                ; preds = %3
  %6 = tail call noundef i32 @_ZNK6icu_7710UnicodeSet11stringsSizeEv(ptr noundef nonnull align 8 dereferenceable(200) %0)
  %7 = icmp sgt i32 %1, -1
  %.not = icmp sgt i32 %6, %1
  %or.cond = and i1 %7, %.not
  br i1 %or.cond, label %9, label %8

8:                                                ; preds = %5
  store i32 0, ptr %2, align 4, !tbaa !21
  br label %28

9:                                                ; preds = %5
  %10 = tail call noundef ptr @_ZNK6icu_7710UnicodeSet9getStringEi(ptr noundef nonnull align 8 dereferenceable(200) %0, i32 noundef %1)
  %11 = getelementptr inbounds nuw i8, ptr %10, i64 8
  %12 = load i16, ptr %11, align 8, !tbaa !22
  %13 = icmp slt i16 %12, 0
  %14 = ashr i16 %12, 5
  %15 = sext i16 %14 to i32
  %16 = getelementptr inbounds nuw i8, ptr %10, i64 12
  %17 = load i32, ptr %16, align 4
  %18 = select i1 %13, i32 %17, i32 %15
  store i32 %18, ptr %2, align 4, !tbaa !21
  %19 = load i16, ptr %11, align 8, !tbaa !22
  %20 = and i16 %19, 17
  %.not.i = icmp eq i16 %20, 0
  br i1 %.not.i, label %21, label %_ZNK6icu_7713UnicodeString9getBufferEv.exit

21:                                               ; preds = %9
  %22 = and i16 %19, 2
  %.not2.i = icmp eq i16 %22, 0
  br i1 %.not2.i, label %25, label %23

23:                                               ; preds = %21
  %24 = getelementptr inbounds nuw i8, ptr %10, i64 10
  br label %_ZNK6icu_7713UnicodeString9getBufferEv.exit

25:                                               ; preds = %21
  %26 = getelementptr inbounds nuw i8, ptr %10, i64 24
  %27 = load ptr, ptr %26, align 8, !tbaa !22
  br label %_ZNK6icu_7713UnicodeString9getBufferEv.exit

_ZNK6icu_7713UnicodeString9getBufferEv.exit:      ; preds = %9, %23, %25
  %.0.i = phi ptr [ %24, %23 ], [ %27, %25 ], [ null, %9 ]
  tail call void asm sideeffect "", "rm,~{memory},~{dirflag},~{fpsr},~{flags}"(ptr %.0.i) #10, !srcloc !23
  br label %28

28:                                               ; preds = %8, %_ZNK6icu_7713UnicodeString9getBufferEv.exit, %3
  %.0 = phi ptr [ null, %3 ], [ null, %8 ], [ %.0.i, %_ZNK6icu_7713UnicodeString9getBufferEv.exit ]
  ret ptr %.0
}